target datalayout = "e-m:e-p270:32:32-p271:32:32-p272:64:64-i64:64-i128:128-f80:128-n8:16:32:64-S128"
target triple = "x86_64-pc-linux-gnu"

; Function Attrs: nounwind uwtable
define ptr @Abc_NtkDarSynchOne(ptr noundef %0, i32 noundef %1, i32 noundef %2) #0 {
  %4 = alloca ptr, align 8
  %5 = alloca ptr, align 8
  %6 = alloca i32, align 4
  %7 = alloca i32, align 4
  %8 = alloca ptr, align 8
  %9 = alloca ptr, align 8
  %10 = alloca ptr, align 8
  store ptr %0, ptr %5, align 8
  store i32 %1, ptr %6, align 4
  store i32 %2, ptr %7, align 4
  %11 = load ptr, ptr %5, align 8
  %12 = call ptr @Abc_NtkToDar(ptr noundef %11, i32 noundef 0, i32 noundef 1)
  store ptr %12, ptr %9, align 8
  %13 = load ptr, ptr %9, align 8
  %14 = icmp eq ptr %13, null
  br i1 %14, label %15, label %16

15:                                               ; preds = %3
  store ptr null, ptr %4, align 8
  br label %31

16:                                               ; preds = %3
  %17 = load ptr, ptr %9, align 8
  store ptr %17, ptr %10, align 8
  %18 = load i32, ptr %6, align 4
  %19 = load i32, ptr %7, align 4
  %20 = call ptr @Saig_SynchSequenceApply(ptr noundef %17, i32 noundef %18, i32 noundef %19)
  store ptr %20, ptr %9, align 8
  %21 = load ptr, ptr %10, align 8
  call void @Aig_ManStop(ptr noundef %21)
  %22 = load ptr, ptr %9, align 8
  %23 = icmp eq ptr %22, null
  br i1 %23, label %24, label %25

24:                                               ; preds = %16
  store ptr null, ptr %4, align 8
  br label %31

25:                                               ; preds = %16
  %26 = load ptr, ptr %5, align 8
  %27 = load ptr, ptr %9, align 8
  %28 = call ptr @Abc_NtkFromDar(ptr noundef %26, ptr noundef %27)
  store ptr %28, ptr %8, align 8
  %29 = load ptr, ptr %9, align 8
  call void @Aig_ManStop(ptr noundef %29)
  %30 = load ptr, ptr %8, align 8
  store ptr %30, ptr %4, align 8
  br label %31

31:                                               ; preds = %25, %24, %15
  %32 = load ptr, ptr %4, align 8
  ret ptr %32
}