; Function Attrs: nounwind uwtable
define noundef ptr @Abc_NtkDarSynchOne(ptr noundef %0, i32 noundef %1, i32 noundef %2) local_unnamed_addr #1 {
  %4 = tail call ptr @Abc_NtkToDar(ptr noundef %0, i32 noundef 0, i32 noundef 1)
  %5 = icmp eq ptr %4, null
  br i1 %5, label %11, label %6

6:                                                ; preds = %3
  %7 = tail call ptr @Saig_SynchSequenceApply(ptr noundef nonnull %4, i32 noundef %1, i32 noundef %2) #19
  tail call void @Aig_ManStop(ptr noundef nonnull %4) #19
  %8 = icmp eq ptr %7, null
  br i1 %8, label %11, label %9

9:                                                ; preds = %6
  %10 = tail call ptr @Abc_NtkFromDar(ptr noundef %0, ptr noundef nonnull %7)
  tail call void @Aig_ManStop(ptr noundef nonnull %7) #19
  br label %11

11:                                               ; preds = %6, %3, %9
  %.0 = phi ptr [ %10, %9 ], [ null, %3 ], [ null, %6 ]
  ret ptr %.0
}